target datalayout = "e-m:e-p270:32:32-p271:32:32-p272:64:64-i64:64-i128:128-f80:128-n8:16:32:64-S128"
target triple = "x86_64-pc-linux-gnu"

%struct.sgraph = type { i32, i32, i32, i32, ptr, ptr }
%struct.snode = type { i32, i32, ptr, ptr, i16, i16, [2 x ptr], ptr, i32, i8 }

; Function Attrs: nounwind uwtable
define void @gsave(ptr noundef %0) #0 {
  %2 = alloca ptr, align 8
  %3 = alloca i32, align 4
  store ptr %0, ptr %2, align 8, !tbaa !3
  call void @llvm.lifetime.start.p0(i64 4, ptr %3) #8
  %4 = load ptr, ptr %2, align 8, !tbaa !3
  %5 = getelementptr inbounds nuw %struct.sgraph, ptr %4, i32 0, i32 0
  %6 = load i32, ptr %5, align 8, !tbaa !7
  %7 = load ptr, ptr %2, align 8, !tbaa !3
  %8 = getelementptr inbounds nuw %struct.sgraph, ptr %7, i32 0, i32 2
  store i32 %6, ptr %8, align 8, !tbaa !12
  %9 = load ptr, ptr %2, align 8, !tbaa !3
  %10 = getelementptr inbounds nuw %struct.sgraph, ptr %9, i32 0, i32 1
  %11 = load i32, ptr %10, align 4, !tbaa !13
  %12 = load ptr, ptr %2, align 8, !tbaa !3
  %13 = getelementptr inbounds nuw %struct.sgraph, ptr %12, i32 0, i32 3
  store i32 %11, ptr %13, align 4, !tbaa !14
  store i32 0, ptr %3, align 4, !tbaa !15
  br label %14

14:                                               ; preds = %36, %1
  %15 = load i32, ptr %3, align 4, !tbaa !15
  %16 = load ptr, ptr %2, align 8, !tbaa !3
  %17 = getelementptr inbounds nuw %struct.sgraph, ptr %16, i32 0, i32 0
  %18 = load i32, ptr %17, align 8, !tbaa !7
  %19 = icmp slt i32 %15, %18
  br i1 %19, label %20, label %39

20:                                               ; preds = %14
  %21 = load ptr, ptr %2, align 8, !tbaa !3
  %22 = getelementptr inbounds nuw %struct.sgraph, ptr %21, i32 0, i32 4
  %23 = load ptr, ptr %22, align 8, !tbaa !16
  %24 = load i32, ptr %3, align 4, !tbaa !15
  %25 = sext i32 %24 to i64
  %26 = getelementptr inbounds %struct.snode, ptr %23, i64 %25
  %27 = getelementptr inbounds nuw %struct.snode, ptr %26, i32 0, i32 4
  %28 = load i16, ptr %27, align 8, !tbaa !17
  %29 = load ptr, ptr %2, align 8, !tbaa !3
  %30 = getelementptr inbounds nuw %struct.sgraph, ptr %29, i32 0, i32 4
  %31 = load ptr, ptr %30, align 8, !tbaa !16
  %32 = load i32, ptr %3, align 4, !tbaa !15
  %33 = sext i32 %32 to i64
  %34 = getelementptr inbounds %struct.snode, ptr %31, i64 %33
  %35 = getelementptr inbounds nuw %struct.snode, ptr %34, i32 0, i32 5
  store i16 %28, ptr %35, align 2, !tbaa !22
  br label %36

36:                                               ; preds = %20
  %37 = load i32, ptr %3, align 4, !tbaa !15
  %38 = add nsw i32 %37, 1
  store i32 %38, ptr %3, align 4, !tbaa !15
  br label %14, !llvm.loop !23

39:                                               ; preds = %14
  call void @llvm.lifetime.end.p0(i64 4, ptr %3) #8
  ret void
}