; Function Attrs: nofree norecurse nosync nounwind memory(readwrite, inaccessiblemem: none) uwtable
define void @gsave(ptr noundef captures(none) initializes((8, 16)) %0) local_unnamed_addr #0 {
  %2 = load i32, ptr %0, align 8, !tbaa !3
  %3 = getelementptr inbounds nuw i8, ptr %0, i64 8
  store i32 %2, ptr %3, align 8, !tbaa !11
  %4 = getelementptr inbounds nuw i8, ptr %0, i64 4
  %5 = load i32, ptr %4, align 4, !tbaa !12
  %6 = getelementptr inbounds nuw i8, ptr %0, i64 12
  store i32 %5, ptr %6, align 4, !tbaa !13
  %7 = icmp sgt i32 %2, 0
  br i1 %7, label %.lr.ph, label %._crit_edge

.lr.ph:                                           ; preds = %1
  %8 = getelementptr inbounds nuw i8, ptr %0, i64 16
  %9 = load ptr, ptr %8, align 8, !tbaa !14
  %wide.trip.count = zext nneg i32 %2 to i64
  br label %10

10:                                               ; preds = %.lr.ph, %10
  %indvars.iv = phi i64 [ 0, %.lr.ph ], [ %indvars.iv.next, %10 ]
  %11 = getelementptr inbounds nuw %struct.snode, ptr %9, i64 %indvars.iv
  %12 = getelementptr inbounds nuw i8, ptr %11, i64 24
  %13 = load i16, ptr %12, align 8, !tbaa !15
  %14 = getelementptr inbounds nuw i8, ptr %11, i64 26
  store i16 %13, ptr %14, align 2, !tbaa !20
  %indvars.iv.next = add nuw nsw i64 %indvars.iv, 1
  %exitcond.not = icmp eq i64 %indvars.iv.next, %wide.trip.count
  br i1 %exitcond.not, label %._crit_edge, label %10, !llvm.loop !21

._crit_edge:                                      ; preds = %10, %1
  ret void
}